#include <math.h>
#include <stdio.h>
#include <stdlib.h>
#include <string.h>

int main(int argc, char* argv[])
{
	int n;
	double s=2;
	scanf("%d",&n);
	int i;
	if(n==0){
		s=1;
	}
	if(n==1){
		s=2;
	}
	if(n>=2){	
	  for(i=2;i<=n;i++){
		  s=s*2;
	  }
	}
	printf("%.0lf",s);
	return 0;
}
