; ModuleID = '25/173.c'
source_filename = "25/173.c"
target datalayout = "e-m:e-p270:32:32-p271:32:32-p272:64:64-i64:64-f80:128-n8:16:32:64-S128"
target triple = "x86_64-pc-linux-gnu"

@.str = private unnamed_addr constant [3 x i8] c"%d\00", align 1
@.str.1 = private unnamed_addr constant [6 x i8] c"%.0lf\00", align 1

; Function Attrs: noinline nounwind uwtable
define dso_local i32 @main(i32 %0, i8** %1) #0 {
  %3 = alloca i32, align 4
  %4 = alloca i32, align 4
  %5 = alloca i8**, align 8
  %6 = alloca i32, align 4
  %7 = alloca double, align 8
  %8 = alloca i32, align 4
  store i32 0, i32* %3, align 4
  store i32 %0, i32* %4, align 4
  store i8** %1, i8*** %5, align 8
  store double 2.000000e+00, double* %7, align 8
  %9 = call i32 (i8*, ...) @__isoc99_scanf(i8* getelementptr inbounds ([3 x i8], [3 x i8]* @.str, i64 0, i64 0), i32* %6)
  %10 = load i32, i32* %6, align 4
  %11 = icmp eq i32 %10, 0
  br i1 %11, label %12, label %13

12:                                               ; preds = %2
  store double 1.000000e+00, double* %7, align 8
  br label %13

13:                                               ; preds = %12, %2
  %14 = load i32, i32* %6, align 4
  %15 = icmp eq i32 %14, 1
  br i1 %15, label %16, label %17

16:                                               ; preds = %13
  store double 2.000000e+00, double* %7, align 8
  br label %17

17:                                               ; preds = %16, %13
  %18 = load i32, i32* %6, align 4
  %19 = icmp sge i32 %18, 2
  br i1 %19, label %20, label %32

20:                                               ; preds = %17
  store i32 2, i32* %8, align 4
  br label %21

21:                                               ; preds = %28, %20
  %22 = load i32, i32* %8, align 4
  %23 = load i32, i32* %6, align 4
  %24 = icmp sle i32 %22, %23
  br i1 %24, label %25, label %31

25:                                               ; preds = %21
  %26 = load double, double* %7, align 8
  %27 = fmul double %26, 2.000000e+00
  store double %27, double* %7, align 8
  br label %28

28:                                               ; preds = %25
  %29 = load i32, i32* %8, align 4
  %30 = add nsw i32 %29, 1
  store i32 %30, i32* %8, align 4
  br label %21

31:                                               ; preds = %21
  br label %32

32:                                               ; preds = %31, %17
  %33 = load double, double* %7, align 8
  %34 = call i32 (i8*, ...) @printf(i8* getelementptr inbounds ([6 x i8], [6 x i8]* @.str.1, i64 0, i64 0), double %33)
  ret i32 0
}

declare dso_local i32 @__isoc99_scanf(i8*, ...) #1

declare dso_local i32 @printf(i8*, ...) #1


!llvm.module.flags = !{!0}
!llvm.ident = !{!1}

!0 = !{i32 1, !"wchar_size", i32 4}
!1 = !{!"clang version 10.0.0-4ubuntu1 "}
